; Function Attrs: mustprogress uwtable
define noundef signext i8 @uset_containsAllCodePoints_77(ptr noundef %0, ptr noundef %1, i32 noundef %2) local_unnamed_addr #0 personality ptr @__gxx_personality_v0 {
  %4 = alloca %"class.icu_77::UnicodeString", align 8
  %5 = alloca %"class.icu_77::ConstChar16Ptr", align 8
  call void @llvm.lifetime.start.p0(i64 64, ptr nonnull %4) #10
  %6 = icmp eq i32 %2, -1
  %7 = zext i1 %6 to i8
  store ptr %1, ptr %5, align 8, !tbaa !18
  invoke void @_ZN6icu_7713UnicodeStringC1EaNS_14ConstChar16PtrEi(ptr noundef nonnull align 8 dereferenceable(64) %4, i8 noundef signext %7, ptr noundef nonnull %5, i32 noundef %2)
          to label %8 unwind label %12

8:                                                ; preds = %3
  %9 = load ptr, ptr %5, align 8, !tbaa !18
  call void asm sideeffect "", "rm,~{memory},~{dirflag},~{fpsr},~{flags}"(ptr %9) #10, !srcloc !20
  %10 = invoke noundef signext i8 @_ZNK6icu_7710UnicodeSet11containsAllERKNS_13UnicodeStringE(ptr noundef nonnull align 8 dereferenceable(200) %0, ptr noundef nonnull align 8 dereferenceable(64) %4)
          to label %11 unwind label %15

11:                                               ; preds = %8
  call void @_ZN6icu_7713UnicodeStringD1Ev(ptr noundef nonnull align 8 dereferenceable(64) %4) #10
  call void @llvm.lifetime.end.p0(i64 64, ptr nonnull %4) #10
  ret i8 %10

12:                                               ; preds = %3
  %13 = landingpad { ptr, i32 }
          cleanup
  %14 = load ptr, ptr %5, align 8, !tbaa !18
  call void asm sideeffect "", "rm,~{memory},~{dirflag},~{fpsr},~{flags}"(ptr %14) #10, !srcloc !20
  br label %17

15:                                               ; preds = %8
  %16 = landingpad { ptr, i32 }
          cleanup
  call void @_ZN6icu_7713UnicodeStringD1Ev(ptr noundef nonnull align 8 dereferenceable(64) %4) #10
  br label %17

17:                                               ; preds = %15, %12
  %.pn = phi { ptr, i32 } [ %16, %15 ], [ %13, %12 ]
  call void @llvm.lifetime.end.p0(i64 64, ptr nonnull %4) #10
  resume { ptr, i32 } %.pn
}